target datalayout = "e-m:e-p270:32:32-p271:32:32-p272:64:64-i64:64-i128:128-f80:128-n8:16:32:64-S128"
target triple = "x86_64-pc-linux-gnu"

%struct._proto_node = type { ptr, ptr, ptr, ptr, ptr, ptr, ptr }
%struct.tree_data_t = type { ptr, i8, i8, i32, ptr, i32, i32 }

; Function Attrs: nounwind null_pointer_is_valid sspstrong uwtable
define zeroext i1 @proto_tree_set_visible(ptr noundef %0, i1 noundef zeroext %1) #3 {
  %3 = alloca ptr, align 8
  %4 = alloca i8, align 1
  %5 = alloca i8, align 1
  store ptr %0, ptr %3, align 8
  %6 = zext i1 %1 to i8
  store i8 %6, ptr %4, align 1
  call void @llvm.lifetime.start.p0(i64 1, ptr %5) #24
  %7 = load ptr, ptr %3, align 8
  %8 = getelementptr inbounds nuw %struct._proto_node, ptr %7, i32 0, i32 6
  %9 = load ptr, ptr %8, align 8
  %10 = getelementptr inbounds nuw %struct.tree_data_t, ptr %9, i32 0, i32 1
  %11 = load i8, ptr %10, align 8, !range !10, !noundef !11
  %12 = trunc i8 %11 to i1
  %13 = zext i1 %12 to i8
  store i8 %13, ptr %5, align 1
  %14 = load i8, ptr %4, align 1, !range !10, !noundef !11
  %15 = trunc i8 %14 to i1
  %16 = load ptr, ptr %3, align 8
  %17 = getelementptr inbounds nuw %struct._proto_node, ptr %16, i32 0, i32 6
  %18 = load ptr, ptr %17, align 8
  %19 = getelementptr inbounds nuw %struct.tree_data_t, ptr %18, i32 0, i32 1
  %20 = zext i1 %15 to i8
  store i8 %20, ptr %19, align 8
  %21 = load i8, ptr %5, align 1, !range !10, !noundef !11
  %22 = trunc i8 %21 to i1
  call void @llvm.lifetime.end.p0(i64 1, ptr %5) #24
  ret i1 %22
}