; Function Attrs: mustprogress nofree norecurse nosync nounwind null_pointer_is_valid sspstrong willreturn memory(readwrite, inaccessiblemem: none) uwtable
define zeroext i1 @proto_tree_set_visible(ptr noundef readonly captures(none) %0, i1 noundef zeroext %1) local_unnamed_addr #5 {
  %3 = zext i1 %1 to i8
  %4 = getelementptr inbounds nuw i8, ptr %0, i64 48
  %5 = load ptr, ptr %4, align 8
  %6 = getelementptr inbounds nuw i8, ptr %5, i64 8
  %7 = load i8, ptr %6, align 8, !range !10, !noundef !11
  %8 = trunc nuw i8 %7 to i1
  store i8 %3, ptr %6, align 8
  ret i1 %8
}